Certificate:
    Data:
        Version: 3 (0x2)
        Serial Number:
            3c:db:45:9c:ef:62:41:d0:f8:a5:1c:d9:0d:87:93:d0
        Signature Algorithm: sha256WithRSAEncryption
        Issuer: CN=Easy-RSA CA
        Validity
            Not Before: Aug  5 17:51:26 2020 GMT
            Not After : Jul 21 17:51:26 2023 GMT
        Subject: CN=2.cdnjs.cloudflare.aiolet.xyz
        Subject Public Key Info:
            Public Key Algorithm: rsaEncryption
                RSA Public-Key: (2048 bit)
                Modulus:
                    00:f0:e3:a9:f3:92:f4:19:bb:98:ae:fb:25:51:12:
                    6f:b6:a1:61:d8:a2:1f:00:e0:de:78:13:ff:fe:72:
                    e4:27:80:b6:3a:76:b5:cb:21:28:b3:01:45:f4:46:
                    08:ad:06:a5:e5:dd:3e:0f:ac:b3:b3:51:41:5d:9a:
                    95:24:63:4e:d0:79:ef:0d:0b:31:e2:37:82:19:e0:
                    58:fa:87:65:f1:2c:3d:99:3f:9b:76:76:78:f6:f9:
                    b7:20:aa:b5:7c:b0:64:8a:79:f5:67:b0:b0:d1:74:
                    97:dc:87:97:4c:7c:b5:7f:a8:66:65:e3:d7:96:f5:
                    94:47:51:f9:e0:3e:ac:68:ed:b0:b8:56:9c:2b:d1:
                    d6:2c:cd:c1:26:1a:60:1d:25:99:c1:1a:aa:50:d3:
                    49:d4:2c:a4:1c:fa:c1:73:62:17:00:b5:56:11:d5:
                    0e:c2:ec:c5:8e:b3:d7:cd:e4:51:36:11:65:0d:23:
                    37:38:5a:d3:e8:56:22:92:d0:6c:5b:49:db:2c:be:
                    8a:c1:7f:41:1f:33:c7:8d:dd:6e:5f:a5:e5:fb:43:
                    f6:94:29:d4:4e:b3:e7:c7:4e:50:57:a9:bc:9b:f2:
                    d9:f6:c5:ae:cb:93:2a:82:65:4a:d6:30:51:2e:35:
                    7b:b7:08:80:3f:51:42:9c:c3:7b:14:ab:88:0a:bf:
                    3c:7d
                Exponent: 65537 (0x10001)
        X509v3 extensions:
            X509v3 Basic Constraints: 
                CA:FALSE
            X509v3 Subject Key Identifier: 
                A6:59:A1:4F:A8:B6:5A:6D:CC:B0:3F:BD:21:5C:4E:09:5A:82:3D:1E
            X509v3 Authority Key Identifier: 
                keyid:2F:ED:A0:B5:16:8E:F7:D1:89:BD:3B:E8:39:CB:AB:29:A3:0F:9F:19
                DirName:/CN=Easy-RSA CA
                serial:6E:61:3B:2F:29:35:4E:64:0C:8F:9E:76:D9:B2:CA:7F:09:C9:FE:6A

            X509v3 Extended Key Usage: 
                TLS Web Server Authentication
            X509v3 Key Usage: 
                Digital Signature, Key Encipherment
            X509v3 Subject Alternative Name: 
                DNS:2.cdnjs.cloudflare.aiolet.xyz
    Signature Algorithm: sha256WithRSAEncryption
         49:e9:6d:5a:9a:3d:f2:ec:7c:47:ea:b4:06:49:21:cb:c4:8c:
         e0:8e:99:03:96:05:ea:93:09:8c:f2:a3:59:61:3c:f3:37:cf:
         4e:86:dc:f0:ee:b8:e9:9e:61:09:1b:79:d5:f9:ab:c2:13:1f:
         1d:4f:e8:4e:a0:94:28:5d:48:5d:b3:c4:a1:8b:56:61:f6:5e:
         7d:a7:d2:b1:06:e2:e6:74:22:85:c0:ba:68:90:e6:05:39:cb:
         60:ce:4e:20:90:9d:9f:4a:6c:e5:c0:c0:28:e8:72:0a:d2:3d:
         92:4a:f9:ce:8f:8c:a2:3a:d0:65:b5:29:b7:43:97:9a:0a:41:
         b0:fa:5f:96:a4:39:d3:9f:ae:b7:1d:92:74:87:f9:f0:91:02:
         ef:20:d8:db:3a:29:29:d8:28:1f:fb:be:20:b8:58:b8:86:41:
         3d:96:5c:54:99:30:49:84:4c:6c:dd:c8:87:86:55:09:9b:d3:
         a7:cb:37:82:36:ce:d9:2a:a2:87:e0:2b:3f:c3:e4:ee:dc:4a:
         ec:5c:98:ff:77:3f:03:22:f5:8b:c7:5e:5e:73:55:fa:b1:74:
         f2:89:a1:f0:59:5f:83:97:92:41:c5:76:56:d0:38:26:3c:2d:
         7c:43:3a:d0:a9:c4:73:c1:a8:ea:03:8d:46:dc:fa:05:ea:70:
         3f:72:9b:1e
-----BEGIN CERTIFICATE-----
MIIDlTCCAn2gAwIBAgIQPNtFnO9iQdD4pRzZDYeT0DANBgkqhkiG9w0BAQsFADAW
MRQwEgYDVQQDDAtFYXN5LVJTQSBDQTAeFw0yMDA4MDUxNzUxMjZaFw0yMzA3MjEx
NzUxMjZaMCgxJjAkBgNVBAMMHTIuY2RuanMuY2xvdWRmbGFyZS5haW9sZXQueHl6
MIIBIjANBgkqhkiG9w0BAQEFAAOCAQ8AMIIBCgKCAQEA8OOp85L0GbuYrvslURJv
tqFh2KIfAODeeBP//nLkJ4C2Ona1yyEoswFF9EYIrQal5d0+D6yzs1FBXZqVJGNO
0HnvDQsx4jeCGeBY+odl8Sw9mT+bdnZ49vm3IKq1fLBkinn1Z7Cw0XSX3IeXTHy1
f6hmZePXlvWUR1H54D6saO2wuFacK9HWLM3BJhpgHSWZwRqqUNNJ1CykHPrBc2IX
ALVWEdUOwuzFjrPXzeRRNhFlDSM3OFrT6FYiktBsW0nbLL6KwX9BHzPHjd1uX6Xl
+0P2lCnUTrPnx05QV6m8m/LZ9sWuy5MqgmVK1jBRLjV7twiAP1FCnMN7FKuICr88
fQIDAQABo4HMMIHJMAkGA1UdEwQCMAAwHQYDVR0OBBYEFKZZoU+otlptzLA/vSFc
Tglagj0eMFEGA1UdIwRKMEiAFC/toLUWjvfRib076DnLqymjD58ZoRqkGDAWMRQw
EgYDVQQDDAtFYXN5LVJTQSBDQYIUbmE7Lyk1TmQMj5522bLKfwnJ/mowEwYDVR0l
BAwwCgYIKwYBBQUHAwEwCwYDVR0PBAQDAgWgMCgGA1UdEQQhMB+CHTIuY2RuanMu
Y2xvdWRmbGFyZS5haW9sZXQueHl6MA0GCSqGSIb3DQEBCwUAA4IBAQBJ6W1amj3y
7HxH6rQGSSHLxIzgjpkDlgXqkwmM8qNZYTzzN89Ohtzw7rjpnmEJG3nV+avCEx8d
T+hOoJQoXUhds8Shi1Zh9l59p9KxBuLmdCKFwLpokOYFOctgzk4gkJ2fSmzlwMAo
6HIK0j2SSvnOj4yiOtBltSm3Q5eaCkGw+l+WpDnTn663HZJ0h/nwkQLvINjbOikp
2Cgf+74guFi4hkE9llxUmTBJhExs3ciHhlUJm9OnyzeCNs7ZKqKH4Cs/w+Tu3Ers
XJj/dz8DIvWLx15ec1X6sXTyiaHwWV+Dl5JBxXZW0DgmPC18QzrQqcRzwajqA41G
3PoF6nA/cpse
-----END CERTIFICATE-----
